; Function Attrs: nounwind uwtable
define noalias noundef nonnull ptr @l_Array_forIn_x27Unsafe_loop___at_Lean_Server_FileWorker_runRefreshTasks___spec__5___lambda__1(ptr noundef readonly captures(none) %0, ptr noundef %1) local_unnamed_addr #0 {
  %3 = getelementptr inbounds nuw i8, ptr %0, i64 8
  %4 = load ptr, ptr %3, align 8, !tbaa !4
  %5 = ptrtoint ptr %4 to i64
  %6 = and i64 %5, 1
  %.not.i = icmp eq i64 %6, 0
  br i1 %.not.i, label %10, label %7

7:                                                ; preds = %2
  %8 = lshr i64 %5, 1
  %9 = trunc i64 %8 to i32
  br label %lean_obj_tag.exit

10:                                               ; preds = %2
  %11 = getelementptr i8, ptr %4, i64 4
  %.val.i = load i32, ptr %11, align 4
  %12 = lshr i32 %.val.i, 24
  br label %lean_obj_tag.exit

lean_obj_tag.exit:                                ; preds = %7, %10
  %.0.i = phi i32 [ %9, %7 ], [ %12, %10 ]
  %13 = icmp eq i32 %.0.i, 0
  br i1 %13, label %14, label %18

14:                                               ; preds = %lean_obj_tag.exit
  tail call void @lean_inc_heartbeat() #7
  %15 = tail call noalias ptr @mi_malloc_small(i64 noundef 24) #7
  %16 = icmp eq ptr %15, null
  br i1 %16, label %17, label %lean_alloc_ctor.exit

17:                                               ; preds = %14
  tail call void @lean_internal_panic_out_of_memory() #8
  unreachable

18:                                               ; preds = %lean_obj_tag.exit
  %19 = getelementptr inbounds nuw i8, ptr %4, i64 8
  %20 = load ptr, ptr %19, align 8, !tbaa !4
  %21 = ptrtoint ptr %20 to i64
  %22 = and i64 %21, 1
  %.not = icmp eq i64 %22, 0
  br i1 %.not, label %23, label %lean_inc.exit

23:                                               ; preds = %18
  %.val.i15 = load i32, ptr %20, align 4, !tbaa !10
  %24 = icmp sgt i32 %.val.i15, 0
  br i1 %24, label %25, label %27, !prof !13

25:                                               ; preds = %23
  %26 = add nuw i32 %.val.i15, 1
  store i32 %26, ptr %20, align 4, !tbaa !10
  br label %lean_inc.exit

27:                                               ; preds = %23
  %.not.i16 = icmp eq i32 %.val.i15, 0
  br i1 %.not.i16, label %lean_inc.exit, label %28

28:                                               ; preds = %27
  tail call void @lean_inc_ref_cold(ptr noundef nonnull %20) #7
  br label %lean_inc.exit

lean_inc.exit:                                    ; preds = %28, %27, %25, %18
  tail call void @lean_inc_heartbeat() #7
  %29 = tail call noalias ptr @mi_malloc_small(i64 noundef 24) #7
  %30 = icmp eq ptr %29, null
  br i1 %30, label %31, label %lean_alloc_ctor.exit

31:                                               ; preds = %lean_inc.exit
  tail call void @lean_internal_panic_out_of_memory() #8
  unreachable

lean_alloc_ctor.exit:                             ; preds = %lean_inc.exit, %14
  %.sink23 = phi ptr [ %15, %14 ], [ %29, %lean_inc.exit ]
  %.sink = phi ptr [ inttoptr (i64 1 to ptr), %14 ], [ %20, %lean_inc.exit ]
  %32 = getelementptr inbounds nuw i8, ptr %.sink23, i64 4
  store i32 1, ptr %.sink23, align 4, !tbaa !10
  store i32 131096, ptr %32, align 4
  %33 = getelementptr inbounds nuw i8, ptr %.sink23, i64 8
  store ptr %.sink, ptr %33, align 8, !tbaa !4
  %34 = getelementptr inbounds nuw i8, ptr %.sink23, i64 16
  store ptr %1, ptr %34, align 8, !tbaa !4
  ret ptr %.sink23
}